; ModuleID = '51/821.c'
source_filename = "51/821.c"
target datalayout = "e-m:e-p270:32:32-p271:32:32-p272:64:64-i64:64-f80:128-n8:16:32:64-S128"
target triple = "x86_64-pc-linux-gnu"

%struct.subs = type { [5 x i8], i32 }

@.str = private unnamed_addr constant [3 x i8] c"%d\00", align 1
@.str.1 = private unnamed_addr constant [4 x i8] c"NO\0A\00", align 1
@.str.2 = private unnamed_addr constant [4 x i8] c"%d\0A\00", align 1

; Function Attrs: noinline nounwind uwtable
define dso_local void @main() #0 {
  %1 = alloca [100 x i8], align 16
  %2 = alloca i32, align 4
  %3 = alloca i32, align 4
  %4 = alloca i32, align 4
  %5 = alloca i32, align 4
  %6 = alloca i32, align 4
  %7 = alloca i32, align 4
  %8 = alloca i32, align 4
  %9 = alloca [100 x %struct.subs], align 16
  store i32 0, i32* %5, align 4
  %10 = call i32 (i8*, ...) @__isoc99_scanf(i8* getelementptr inbounds ([3 x i8], [3 x i8]* @.str, i64 0, i64 0), i32* %2)
  %11 = call i32 @getchar()
  %12 = getelementptr inbounds [100 x i8], [100 x i8]* %1, i64 0, i64 0
  %13 = call i32 (i8*, ...) bitcast (i32 (...)* @gets to i32 (i8*, ...)*)(i8* %12)
  %14 = getelementptr inbounds [100 x i8], [100 x i8]* %1, i64 0, i64 0
  %15 = call i64 @strlen(i8* %14) #4
  %16 = trunc i64 %15 to i32
  store i32 %16, i32* %3, align 4
  store i32 0, i32* %4, align 4
  br label %17

17:                                               ; preds = %121, %0
  %18 = load i32, i32* %4, align 4
  %19 = load i32, i32* %3, align 4
  %20 = load i32, i32* %2, align 4
  %21 = sub nsw i32 %19, %20
  %22 = icmp sle i32 %18, %21
  br i1 %22, label %23, label %124

23:                                               ; preds = %17
  %24 = load i32, i32* %4, align 4
  %25 = sext i32 %24 to i64
  %26 = getelementptr inbounds [100 x %struct.subs], [100 x %struct.subs]* %9, i64 0, i64 %25
  %27 = getelementptr inbounds %struct.subs, %struct.subs* %26, i32 0, i32 1
  store i32 0, i32* %27, align 4
  %28 = load i32, i32* %4, align 4
  %29 = icmp eq i32 %28, 0
  br i1 %29, label %30, label %58

30:                                               ; preds = %23
  %31 = load i32, i32* %5, align 4
  %32 = sext i32 %31 to i64
  %33 = getelementptr inbounds [100 x %struct.subs], [100 x %struct.subs]* %9, i64 0, i64 %32
  %34 = getelementptr inbounds %struct.subs, %struct.subs* %33, i32 0, i32 0
  %35 = getelementptr inbounds [5 x i8], [5 x i8]* %34, i64 0, i64 0
  %36 = getelementptr inbounds [100 x i8], [100 x i8]* %1, i64 0, i64 0
  %37 = load i32, i32* %4, align 4
  %38 = sext i32 %37 to i64
  %39 = getelementptr inbounds i8, i8* %36, i64 %38
  %40 = load i32, i32* %2, align 4
  %41 = sext i32 %40 to i64
  %42 = call i8* @strncpy(i8* %35, i8* %39, i64 %41) #5
  %43 = load i32, i32* %5, align 4
  %44 = sext i32 %43 to i64
  %45 = getelementptr inbounds [100 x %struct.subs], [100 x %struct.subs]* %9, i64 0, i64 %44
  %46 = getelementptr inbounds %struct.subs, %struct.subs* %45, i32 0, i32 0
  %47 = load i32, i32* %2, align 4
  %48 = sext i32 %47 to i64
  %49 = getelementptr inbounds [5 x i8], [5 x i8]* %46, i64 0, i64 %48
  store i8 0, i8* %49, align 1
  %50 = load i32, i32* %5, align 4
  %51 = sext i32 %50 to i64
  %52 = getelementptr inbounds [100 x %struct.subs], [100 x %struct.subs]* %9, i64 0, i64 %51
  %53 = getelementptr inbounds %struct.subs, %struct.subs* %52, i32 0, i32 1
  %54 = load i32, i32* %53, align 4
  %55 = add nsw i32 %54, 1
  store i32 %55, i32* %53, align 4
  %56 = load i32, i32* %5, align 4
  %57 = add nsw i32 %56, 1
  store i32 %57, i32* %5, align 4
  br label %120

58:                                               ; preds = %23
  store i32 1, i32* %7, align 4
  store i32 0, i32* %6, align 4
  br label %59

59:                                               ; preds = %85, %58
  %60 = load i32, i32* %6, align 4
  %61 = load i32, i32* %5, align 4
  %62 = icmp slt i32 %60, %61
  br i1 %62, label %63, label %88

63:                                               ; preds = %59
  %64 = load i32, i32* %6, align 4
  %65 = sext i32 %64 to i64
  %66 = getelementptr inbounds [100 x %struct.subs], [100 x %struct.subs]* %9, i64 0, i64 %65
  %67 = getelementptr inbounds %struct.subs, %struct.subs* %66, i32 0, i32 0
  %68 = getelementptr inbounds [5 x i8], [5 x i8]* %67, i64 0, i64 0
  %69 = getelementptr inbounds [100 x i8], [100 x i8]* %1, i64 0, i64 0
  %70 = load i32, i32* %4, align 4
  %71 = sext i32 %70 to i64
  %72 = getelementptr inbounds i8, i8* %69, i64 %71
  %73 = load i32, i32* %2, align 4
  %74 = sext i32 %73 to i64
  %75 = call i32 @strncmp(i8* %68, i8* %72, i64 %74) #4
  %76 = icmp eq i32 %75, 0
  br i1 %76, label %77, label %84

77:                                               ; preds = %63
  %78 = load i32, i32* %6, align 4
  %79 = sext i32 %78 to i64
  %80 = getelementptr inbounds [100 x %struct.subs], [100 x %struct.subs]* %9, i64 0, i64 %79
  %81 = getelementptr inbounds %struct.subs, %struct.subs* %80, i32 0, i32 1
  %82 = load i32, i32* %81, align 4
  %83 = add nsw i32 %82, 1
  store i32 %83, i32* %81, align 4
  store i32 0, i32* %7, align 4
  br label %88

84:                                               ; preds = %63
  br label %85

85:                                               ; preds = %84
  %86 = load i32, i32* %6, align 4
  %87 = add nsw i32 %86, 1
  store i32 %87, i32* %6, align 4
  br label %59

88:                                               ; preds = %77, %59
  %89 = load i32, i32* %7, align 4
  %90 = icmp ne i32 %89, 0
  br i1 %90, label %91, label %119

91:                                               ; preds = %88
  %92 = load i32, i32* %5, align 4
  %93 = sext i32 %92 to i64
  %94 = getelementptr inbounds [100 x %struct.subs], [100 x %struct.subs]* %9, i64 0, i64 %93
  %95 = getelementptr inbounds %struct.subs, %struct.subs* %94, i32 0, i32 0
  %96 = getelementptr inbounds [5 x i8], [5 x i8]* %95, i64 0, i64 0
  %97 = getelementptr inbounds [100 x i8], [100 x i8]* %1, i64 0, i64 0
  %98 = load i32, i32* %4, align 4
  %99 = sext i32 %98 to i64
  %100 = getelementptr inbounds i8, i8* %97, i64 %99
  %101 = load i32, i32* %2, align 4
  %102 = sext i32 %101 to i64
  %103 = call i8* @strncpy(i8* %96, i8* %100, i64 %102) #5
  %104 = load i32, i32* %5, align 4
  %105 = sext i32 %104 to i64
  %106 = getelementptr inbounds [100 x %struct.subs], [100 x %struct.subs]* %9, i64 0, i64 %105
  %107 = getelementptr inbounds %struct.subs, %struct.subs* %106, i32 0, i32 0
  %108 = load i32, i32* %2, align 4
  %109 = sext i32 %108 to i64
  %110 = getelementptr inbounds [5 x i8], [5 x i8]* %107, i64 0, i64 %109
  store i8 0, i8* %110, align 1
  %111 = load i32, i32* %5, align 4
  %112 = sext i32 %111 to i64
  %113 = getelementptr inbounds [100 x %struct.subs], [100 x %struct.subs]* %9, i64 0, i64 %112
  %114 = getelementptr inbounds %struct.subs, %struct.subs* %113, i32 0, i32 1
  %115 = load i32, i32* %114, align 4
  %116 = add nsw i32 %115, 1
  store i32 %116, i32* %114, align 4
  %117 = load i32, i32* %5, align 4
  %118 = add nsw i32 %117, 1
  store i32 %118, i32* %5, align 4
  br label %119

119:                                              ; preds = %91, %88
  br label %120

120:                                              ; preds = %119, %30
  br label %121

121:                                              ; preds = %120
  %122 = load i32, i32* %4, align 4
  %123 = add nsw i32 %122, 1
  store i32 %123, i32* %4, align 4
  br label %17

124:                                              ; preds = %17
  store i32 0, i32* %4, align 4
  br label %125

125:                                              ; preds = %154, %124
  %126 = load i32, i32* %4, align 4
  %127 = load i32, i32* %5, align 4
  %128 = icmp slt i32 %126, %127
  br i1 %128, label %129, label %157

129:                                              ; preds = %125
  %130 = load i32, i32* %4, align 4
  %131 = icmp eq i32 %130, 0
  br i1 %131, label %132, label %138

132:                                              ; preds = %129
  %133 = load i32, i32* %4, align 4
  %134 = sext i32 %133 to i64
  %135 = getelementptr inbounds [100 x %struct.subs], [100 x %struct.subs]* %9, i64 0, i64 %134
  %136 = getelementptr inbounds %struct.subs, %struct.subs* %135, i32 0, i32 1
  %137 = load i32, i32* %136, align 4
  store i32 %137, i32* %8, align 4
  br label %153

138:                                              ; preds = %129
  %139 = load i32, i32* %4, align 4
  %140 = sext i32 %139 to i64
  %141 = getelementptr inbounds [100 x %struct.subs], [100 x %struct.subs]* %9, i64 0, i64 %140
  %142 = getelementptr inbounds %struct.subs, %struct.subs* %141, i32 0, i32 1
  %143 = load i32, i32* %142, align 4
  %144 = load i32, i32* %8, align 4
  %145 = icmp sgt i32 %143, %144
  br i1 %145, label %146, label %152

146:                                              ; preds = %138
  %147 = load i32, i32* %4, align 4
  %148 = sext i32 %147 to i64
  %149 = getelementptr inbounds [100 x %struct.subs], [100 x %struct.subs]* %9, i64 0, i64 %148
  %150 = getelementptr inbounds %struct.subs, %struct.subs* %149, i32 0, i32 1
  %151 = load i32, i32* %150, align 4
  store i32 %151, i32* %8, align 4
  br label %152

152:                                              ; preds = %146, %138
  br label %153

153:                                              ; preds = %152, %132
  br label %154

154:                                              ; preds = %153
  %155 = load i32, i32* %4, align 4
  %156 = add nsw i32 %155, 1
  store i32 %156, i32* %4, align 4
  br label %125

157:                                              ; preds = %125
  %158 = load i32, i32* %8, align 4
  %159 = icmp eq i32 %158, 1
  br i1 %159, label %160, label %162

160:                                              ; preds = %157
  %161 = call i32 (i8*, ...) @printf(i8* getelementptr inbounds ([4 x i8], [4 x i8]* @.str.1, i64 0, i64 0))
  br label %189

162:                                              ; preds = %157
  %163 = load i32, i32* %8, align 4
  %164 = call i32 (i8*, ...) @printf(i8* getelementptr inbounds ([4 x i8], [4 x i8]* @.str.2, i64 0, i64 0), i32 %163)
  store i32 0, i32* %4, align 4
  br label %165

165:                                              ; preds = %185, %162
  %166 = load i32, i32* %4, align 4
  %167 = load i32, i32* %5, align 4
  %168 = icmp slt i32 %166, %167
  br i1 %168, label %169, label %188

169:                                              ; preds = %165
  %170 = load i32, i32* %4, align 4
  %171 = sext i32 %170 to i64
  %172 = getelementptr inbounds [100 x %struct.subs], [100 x %struct.subs]* %9, i64 0, i64 %171
  %173 = getelementptr inbounds %struct.subs, %struct.subs* %172, i32 0, i32 1
  %174 = load i32, i32* %173, align 4
  %175 = load i32, i32* %8, align 4
  %176 = icmp eq i32 %174, %175
  br i1 %176, label %177, label %184

177:                                              ; preds = %169
  %178 = load i32, i32* %4, align 4
  %179 = sext i32 %178 to i64
  %180 = getelementptr inbounds [100 x %struct.subs], [100 x %struct.subs]* %9, i64 0, i64 %179
  %181 = getelementptr inbounds %struct.subs, %struct.subs* %180, i32 0, i32 0
  %182 = getelementptr inbounds [5 x i8], [5 x i8]* %181, i64 0, i64 0
  %183 = call i32 @puts(i8* %182)
  br label %184

184:                                              ; preds = %177, %169
  br label %185

185:                                              ; preds = %184
  %186 = load i32, i32* %4, align 4
  %187 = add nsw i32 %186, 1
  store i32 %187, i32* %4, align 4
  br label %165

188:                                              ; preds = %165
  br label %189

189:                                              ; preds = %188, %160
  ret void
}

declare dso_local i32 @__isoc99_scanf(i8*, ...) #1

declare dso_local i32 @getchar() #1

declare dso_local i32 @gets(...) #1

; Function Attrs: nounwind readonly
declare dso_local i64 @strlen(i8*) #2

; Function Attrs: nounwind
declare dso_local i8* @strncpy(i8*, i8*, i64) #3

; Function Attrs: nounwind readonly
declare dso_local i32 @strncmp(i8*, i8*, i64) #2

declare dso_local i32 @printf(i8*, ...) #1

declare dso_local i32 @puts(i8*) #1


!llvm.module.flags = !{!0}
!llvm.ident = !{!1}

!0 = !{i32 1, !"wchar_size", i32 4}
!1 = !{!"clang version 10.0.0-4ubuntu1 "}
